; Function Attrs: mustprogress uwtable
define noundef nonnull align 8 dereferenceable(72) ptr @_ZN4YAML7Emitter13SetLocalValueENS_13EMITTER_MANIPE(ptr noundef nonnull returned align 8 dereferenceable(72) %0, i32 noundef %1) local_unnamed_addr #0 align 2 {
  %3 = load ptr, ptr %0, align 8, !tbaa !3
  %4 = load i8, ptr %3, align 8, !tbaa !21, !range !39, !noundef !40
  %5 = trunc nuw i8 %4 to i1
  br i1 %5, label %6, label %19

6:                                                ; preds = %2
  switch i32 %1, label %18 [
    i32 24, label %7
    i32 25, label %8
    i32 26, label %_ZN4YAML7Emitter12EmitBeginSeqEv.exit
    i32 27, label %11
    i32 30, label %_ZN4YAML7Emitter12EmitBeginMapEv.exit
    i32 31, label %14
    i32 32, label %19
    i32 33, label %19
    i32 1, label %15
    i32 2, label %_ZN4YAML7Emitter11EmitNewlineEv.exit
  ]

7:                                                ; preds = %6
  tail call void @_ZN4YAML7Emitter12EmitBeginDocEv(ptr noundef nonnull align 8 dereferenceable(72) %0)
  br label %19

8:                                                ; preds = %6
  tail call void @_ZN4YAML7Emitter10EmitEndDocEv(ptr noundef nonnull align 8 dereferenceable(72) %0)
  br label %19

_ZN4YAML7Emitter12EmitBeginSeqEv.exit:            ; preds = %6
  %9 = tail call noundef i32 @_ZNK4YAML12EmitterState13NextGroupTypeENS_9GroupType5valueE(ptr noundef nonnull align 8 dereferenceable(224) %3, i32 noundef 1)
  tail call void @_ZN4YAML7Emitter11PrepareNodeENS_15EmitterNodeType5valueE(ptr noundef nonnull align 8 dereferenceable(72) %0, i32 noundef %9)
  %10 = load ptr, ptr %0, align 8, !tbaa !3
  tail call void @_ZN4YAML12EmitterState12StartedGroupENS_9GroupType5valueE(ptr noundef nonnull align 8 dereferenceable(224) %10, i32 noundef 1)
  br label %19

11:                                               ; preds = %6
  tail call void @_ZN4YAML7Emitter10EmitEndSeqEv(ptr noundef nonnull align 8 dereferenceable(72) %0)
  br label %19

_ZN4YAML7Emitter12EmitBeginMapEv.exit:            ; preds = %6
  %12 = tail call noundef i32 @_ZNK4YAML12EmitterState13NextGroupTypeENS_9GroupType5valueE(ptr noundef nonnull align 8 dereferenceable(224) %3, i32 noundef 2)
  tail call void @_ZN4YAML7Emitter11PrepareNodeENS_15EmitterNodeType5valueE(ptr noundef nonnull align 8 dereferenceable(72) %0, i32 noundef %12)
  %13 = load ptr, ptr %0, align 8, !tbaa !3
  tail call void @_ZN4YAML12EmitterState12StartedGroupENS_9GroupType5valueE(ptr noundef nonnull align 8 dereferenceable(224) %13, i32 noundef 2)
  br label %19

14:                                               ; preds = %6
  tail call void @_ZN4YAML7Emitter10EmitEndMapEv(ptr noundef nonnull align 8 dereferenceable(72) %0)
  br label %19

15:                                               ; preds = %6
  tail call void @_ZN4YAML7Emitter11EmitKindTagEv(ptr noundef nonnull align 8 dereferenceable(72) %0)
  br label %19

_ZN4YAML7Emitter11EmitNewlineEv.exit:             ; preds = %6
  tail call void @_ZN4YAML7Emitter11PrepareNodeENS_15EmitterNodeType5valueE(ptr noundef nonnull align 8 dereferenceable(72) %0, i32 noundef 0)
  %16 = getelementptr inbounds nuw i8, ptr %0, i64 8
  tail call void @_ZN4YAML15ostream_wrapper5writeEPKcm(ptr noundef nonnull align 8 dereferenceable(57) %16, ptr noundef nonnull @.str.1, i64 noundef 1)
  %17 = load ptr, ptr %0, align 8, !tbaa !3
  tail call void @_ZN4YAML12EmitterState13SetNonContentEv(ptr noundef nonnull align 8 dereferenceable(224) %17)
  br label %19

18:                                               ; preds = %6
  tail call void @_ZN4YAML12EmitterState13SetLocalValueENS_13EMITTER_MANIPE(ptr noundef nonnull align 8 dereferenceable(224) %3, i32 noundef %1)
  br label %19

19:                                               ; preds = %7, %8, %_ZN4YAML7Emitter12EmitBeginSeqEv.exit, %11, %_ZN4YAML7Emitter12EmitBeginMapEv.exit, %14, %15, %_ZN4YAML7Emitter11EmitNewlineEv.exit, %18, %6, %6, %2
  ret ptr %0
}